target datalayout = "e-m:e-p270:32:32-p271:32:32-p272:64:64-i64:64-i128:128-f80:128-n8:16:32:64-S128"
target triple = "x86_64-pc-linux-gnu"

%struct.ref_iterator_vtable = type { ptr, ptr, ptr }
%struct.ref_iterator = type { ptr, ptr, ptr, ptr, i32 }
%struct.prefix_ref_iterator = type { %struct.ref_iterator, ptr, ptr, i32 }

; Function Attrs: nounwind uwtable
define dso_local i32 @ref_iterator_peel(ptr noundef %0, ptr noundef %1) #0 {
  %3 = alloca ptr, align 8
  %4 = alloca ptr, align 8
  store ptr %0, ptr %3, align 8, !tbaa !4
  store ptr %1, ptr %4, align 8, !tbaa !17
  %5 = load ptr, ptr %3, align 8, !tbaa !4
  %6 = getelementptr inbounds nuw %struct.ref_iterator, ptr %5, i32 0, i32 0
  %7 = load ptr, ptr %6, align 8, !tbaa !9
  %8 = getelementptr inbounds nuw %struct.ref_iterator_vtable, ptr %7, i32 0, i32 1
  %9 = load ptr, ptr %8, align 8, !tbaa !18
  %10 = load ptr, ptr %3, align 8, !tbaa !4
  %11 = load ptr, ptr %4, align 8, !tbaa !17
  %12 = call i32 %9(ptr noundef %10, ptr noundef %11)
  ret i32 %12
}

; Function Attrs: nounwind uwtable
define internal i32 @prefix_ref_iterator_peel(ptr noundef %0, ptr noundef %1) #0 {
  %3 = alloca ptr, align 8
  %4 = alloca ptr, align 8
  %5 = alloca ptr, align 8
  store ptr %0, ptr %3, align 8, !tbaa !4
  store ptr %1, ptr %4, align 8, !tbaa !17
  call void @llvm.lifetime.start.p0(i64 8, ptr %5) #6
  %6 = load ptr, ptr %3, align 8, !tbaa !4
  store ptr %6, ptr %5, align 8, !tbaa !40
  %7 = load ptr, ptr %5, align 8, !tbaa !40
  %8 = getelementptr inbounds nuw %struct.prefix_ref_iterator, ptr %7, i32 0, i32 1
  %9 = load ptr, ptr %8, align 8, !tbaa !42
  %10 = load ptr, ptr %4, align 8, !tbaa !17
  %11 = call i32 @ref_iterator_peel(ptr noundef %9, ptr noundef %10)
  call void @llvm.lifetime.end.p0(i64 8, ptr %5) #6
  ret i32 %11
}