; Function Attrs: nounwind uwtable
define internal i32 @prefix_ref_iterator_peel(ptr noundef readonly captures(none) %0, ptr noundef %1) #0 {
  %3 = getelementptr inbounds nuw i8, ptr %0, i64 40
  %4 = load ptr, ptr %3, align 8, !tbaa !27
  %5 = load ptr, ptr %4, align 8, !tbaa !4
  %6 = getelementptr inbounds nuw i8, ptr %5, i64 8
  %7 = load ptr, ptr %6, align 8, !tbaa !15
  %8 = tail call i32 %7(ptr noundef nonnull %4, ptr noundef %1) #11
  ret i32 %8
}